target datalayout = "e-m:e-p270:32:32-p271:32:32-p272:64:64-i64:64-i128:128-f80:128-n8:16:32:64-S128"
target triple = "x86_64-pc-linux-gnu"

%struct.evp_pkey_ctx_st = type { i32, ptr, ptr, ptr, ptr, %union.anon, %struct.anon.5, ptr, ptr, ptr, i32, i32, ptr, ptr, ptr, ptr, ptr, i8, ptr }
%union.anon = type { %struct.anon.1 }
%struct.anon.1 = type { ptr, ptr }
%struct.anon.5 = type { ptr, ptr, i64, i8 }

@.str.8 = private unnamed_addr constant [32 x i8] c"../openssl/crypto/ec/ecx_meth.c\00", align 1
@__func__.ecx_generic_import_from = private unnamed_addr constant [24 x i8] c"ecx_generic_import_from\00", align 1

; Function Attrs: nounwind uwtable
define internal i32 @ecx_generic_import_from(ptr noundef %0, ptr noundef %1, i32 noundef %2) #0 {
  %4 = alloca i32, align 4
  %5 = alloca ptr, align 8
  %6 = alloca ptr, align 8
  %7 = alloca i32, align 4
  %8 = alloca ptr, align 8
  %9 = alloca ptr, align 8
  %10 = alloca ptr, align 8
  %11 = alloca i32, align 4
  store ptr %0, ptr %5, align 8, !tbaa !56
  store ptr %1, ptr %6, align 8, !tbaa !47
  store i32 %2, ptr %7, align 4, !tbaa !10
  call void @llvm.lifetime.start.p0(i64 8, ptr %8) #4
  %12 = load ptr, ptr %6, align 8, !tbaa !47
  store ptr %12, ptr %8, align 8, !tbaa !70
  call void @llvm.lifetime.start.p0(i64 8, ptr %9) #4
  %13 = load ptr, ptr %8, align 8, !tbaa !70
  %14 = call ptr @EVP_PKEY_CTX_get0_pkey(ptr noundef %13)
  store ptr %14, ptr %9, align 8, !tbaa !3
  call void @llvm.lifetime.start.p0(i64 8, ptr %10) #4
  %15 = load ptr, ptr %8, align 8, !tbaa !70
  %16 = getelementptr inbounds nuw %struct.evp_pkey_ctx_st, ptr %15, i32 0, i32 1
  %17 = load ptr, ptr %16, align 8, !tbaa !72
  %18 = load i32, ptr %7, align 4, !tbaa !10
  %19 = icmp eq i32 %18, 1034
  br i1 %19, label %23, label %20

20:                                               ; preds = %3
  %21 = load i32, ptr %7, align 4, !tbaa !10
  %22 = icmp eq i32 %21, 1087
  br i1 %22, label %23, label %27

23:                                               ; preds = %20, %3
  %24 = load i32, ptr %7, align 4, !tbaa !10
  %25 = icmp eq i32 %24, 1034
  %26 = select i1 %25, i32 0, i32 2
  br label %31

27:                                               ; preds = %20
  %28 = load i32, ptr %7, align 4, !tbaa !10
  %29 = icmp eq i32 %28, 1035
  %30 = select i1 %29, i32 1, i32 3
  br label %31

31:                                               ; preds = %27, %23
  %32 = phi i32 [ %26, %23 ], [ %30, %27 ]
  %33 = load ptr, ptr %8, align 8, !tbaa !70
  %34 = getelementptr inbounds nuw %struct.evp_pkey_ctx_st, ptr %33, i32 0, i32 2
  %35 = load ptr, ptr %34, align 8, !tbaa !78
  %36 = call ptr @ossl_ecx_key_new(ptr noundef %17, i32 noundef %32, i32 noundef 0, ptr noundef %35)
  store ptr %36, ptr %10, align 8, !tbaa !31
  %37 = load ptr, ptr %10, align 8, !tbaa !31
  %38 = icmp eq ptr %37, null
  br i1 %38, label %39, label %40

39:                                               ; preds = %31
  call void @ERR_new()
  call void @ERR_set_debug(ptr noundef @.str.8, i32 noundef 393, ptr noundef @__func__.ecx_generic_import_from)
  call void (i32, i32, ptr, ...) @ERR_set_error(i32 noundef 5, i32 noundef 524304, ptr noundef null)
  store i32 0, ptr %4, align 4
  store i32 1, ptr %11, align 4
  br label %54

40:                                               ; preds = %31
  %41 = load ptr, ptr %10, align 8, !tbaa !31
  %42 = load ptr, ptr %5, align 8, !tbaa !56
  %43 = call i32 @ossl_ecx_key_fromdata(ptr noundef %41, ptr noundef %42, i32 noundef 1)
  %44 = icmp ne i32 %43, 0
  br i1 %44, label %45, label %51

45:                                               ; preds = %40
  %46 = load ptr, ptr %9, align 8, !tbaa !3
  %47 = load i32, ptr %7, align 4, !tbaa !10
  %48 = load ptr, ptr %10, align 8, !tbaa !31
  %49 = call i32 @EVP_PKEY_assign(ptr noundef %46, i32 noundef %47, ptr noundef %48)
  %50 = icmp ne i32 %49, 0
  br i1 %50, label %53, label %51

51:                                               ; preds = %45, %40
  %52 = load ptr, ptr %10, align 8, !tbaa !31
  call void @ossl_ecx_key_free(ptr noundef %52)
  store i32 0, ptr %4, align 4
  store i32 1, ptr %11, align 4
  br label %54

53:                                               ; preds = %45
  store i32 1, ptr %4, align 4
  store i32 1, ptr %11, align 4
  br label %54

54:                                               ; preds = %53, %51, %39
  call void @llvm.lifetime.end.p0(i64 8, ptr %10) #4
  call void @llvm.lifetime.end.p0(i64 8, ptr %9) #4
  call void @llvm.lifetime.end.p0(i64 8, ptr %8) #4
  %55 = load i32, ptr %4, align 4
  ret i32 %55
}