; Function Attrs: nounwind uwtable
define internal fastcc range(i32 0, 2) i32 @ecx_generic_import_from(ptr noundef %0, ptr noundef %1, i32 noundef range(i32 1034, 1089) %2) unnamed_addr #0 {
  %4 = tail call ptr @EVP_PKEY_CTX_get0_pkey(ptr noundef %1) #8
  %5 = getelementptr inbounds nuw i8, ptr %1, i64 8
  %6 = load ptr, ptr %5, align 8, !tbaa !40
  switch i32 %2, label %10 [
    i32 1087, label %7
    i32 1034, label %7
  ]

7:                                                ; preds = %3, %3
  %8 = icmp eq i32 %2, 1034
  %9 = select i1 %8, i32 0, i32 2
  br label %13

10:                                               ; preds = %3
  %11 = icmp eq i32 %2, 1035
  %12 = select i1 %11, i32 1, i32 3
  br label %13

13:                                               ; preds = %10, %7
  %14 = phi i32 [ %9, %7 ], [ %12, %10 ]
  %15 = getelementptr inbounds nuw i8, ptr %1, i64 16
  %16 = load ptr, ptr %15, align 8, !tbaa !47
  %17 = tail call ptr @ossl_ecx_key_new(ptr noundef %6, i32 noundef %14, i32 noundef 0, ptr noundef %16) #8
  %18 = icmp eq ptr %17, null
  br i1 %18, label %19, label %20

19:                                               ; preds = %13
  tail call void @ERR_new() #8
  tail call void @ERR_set_debug(ptr noundef nonnull @.str.8, i32 noundef 393, ptr noundef nonnull @__func__.ecx_generic_import_from) #8
  tail call void (i32, i32, ptr, ...) @ERR_set_error(i32 noundef 5, i32 noundef 524304, ptr noundef null) #8
  br label %25

20:                                               ; preds = %13
  %21 = tail call i32 @ossl_ecx_key_fromdata(ptr noundef nonnull %17, ptr noundef %0, i32 noundef 1) #8
  %.not = icmp eq i32 %21, 0
  br i1 %.not, label %24, label %22

22:                                               ; preds = %20
  %23 = tail call i32 @EVP_PKEY_assign(ptr noundef %4, i32 noundef %2, ptr noundef nonnull %17) #8
  %.not18 = icmp eq i32 %23, 0
  br i1 %.not18, label %24, label %25

24:                                               ; preds = %22, %20
  tail call void @ossl_ecx_key_free(ptr noundef nonnull %17) #8
  br label %25

25:                                               ; preds = %22, %24, %19
  %.0 = phi i32 [ 0, %19 ], [ 0, %24 ], [ 1, %22 ]
  ret i32 %.0
}